target datalayout = "e-m:e-p270:32:32-p271:32:32-p272:64:64-i64:64-i128:128-f80:128-n8:16:32:64-S128"
target triple = "x86_64-pc-linux-gnu"

@TextJoin.buffer = internal global [1024 x i8] zeroinitializer, align 16

; Function Attrs: nounwind uwtable
define i32 @TextLength(ptr noundef %0) #0 {
  %2 = alloca ptr, align 8
  %3 = alloca i32, align 4
  store ptr %0, ptr %2, align 8
  call void @llvm.lifetime.start.p0(i64 4, ptr %3) #13
  store i32 0, ptr %3, align 4
  %4 = load ptr, ptr %2, align 8
  %5 = icmp ne ptr %4, null
  br i1 %5, label %6, label %16

6:                                                ; preds = %1
  br label %7

7:                                                ; preds = %12, %6
  %8 = load ptr, ptr %2, align 8
  %9 = getelementptr inbounds nuw i8, ptr %8, i32 1
  store ptr %9, ptr %2, align 8
  %10 = load i8, ptr %8, align 1
  %11 = icmp ne i8 %10, 0
  br i1 %11, label %12, label %15

12:                                               ; preds = %7
  %13 = load i32, ptr %3, align 4
  %14 = add i32 %13, 1
  store i32 %14, ptr %3, align 4
  br label %7

15:                                               ; preds = %7
  br label %16

16:                                               ; preds = %15, %1
  %17 = load i32, ptr %3, align 4
  call void @llvm.lifetime.end.p0(i64 4, ptr %3) #13
  ret i32 %17
}

; Function Attrs: nounwind uwtable
define ptr @TextJoin(ptr noundef %0, i32 noundef %1, ptr noundef %2) #0 {
  %4 = alloca ptr, align 8
  %5 = alloca i32, align 4
  %6 = alloca ptr, align 8
  %7 = alloca ptr, align 8
  %8 = alloca i32, align 4
  %9 = alloca i32, align 4
  %10 = alloca i32, align 4
  %11 = alloca i32, align 4
  store ptr %0, ptr %4, align 8
  store i32 %1, ptr %5, align 4
  store ptr %2, ptr %6, align 8
  call void @llvm.memset.p0.i64(ptr align 16 @TextJoin.buffer, i8 0, i64 1024, i1 false)
  call void @llvm.lifetime.start.p0(i64 8, ptr %7) #13
  store ptr @TextJoin.buffer, ptr %7, align 8
  call void @llvm.lifetime.start.p0(i64 4, ptr %8) #13
  store i32 0, ptr %8, align 4
  call void @llvm.lifetime.start.p0(i64 4, ptr %9) #13
  %12 = load ptr, ptr %6, align 8
  %13 = call i32 @TextLength(ptr noundef %12)
  store i32 %13, ptr %9, align 4
  call void @llvm.lifetime.start.p0(i64 4, ptr %10) #13
  store i32 0, ptr %10, align 4
  br label %14

14:                                               ; preds = %67, %3
  %15 = load i32, ptr %10, align 4
  %16 = load i32, ptr %5, align 4
  %17 = icmp slt i32 %15, %16
  br i1 %17, label %19, label %18

18:                                               ; preds = %14
  call void @llvm.lifetime.end.p0(i64 4, ptr %10) #13
  br label %70

19:                                               ; preds = %14
  call void @llvm.lifetime.start.p0(i64 4, ptr %11) #13
  %20 = load ptr, ptr %4, align 8
  %21 = load i32, ptr %10, align 4
  %22 = sext i32 %21 to i64
  %23 = getelementptr inbounds ptr, ptr %20, i64 %22
  %24 = load ptr, ptr %23, align 8
  %25 = call i32 @TextLength(ptr noundef %24)
  store i32 %25, ptr %11, align 4
  %26 = load i32, ptr %8, align 4
  %27 = load i32, ptr %11, align 4
  %28 = add nsw i32 %26, %27
  %29 = icmp slt i32 %28, 1024
  br i1 %29, label %30, label %66

30:                                               ; preds = %19
  %31 = load ptr, ptr %7, align 8
  %32 = load ptr, ptr %4, align 8
  %33 = load i32, ptr %10, align 4
  %34 = sext i32 %33 to i64
  %35 = getelementptr inbounds ptr, ptr %32, i64 %34
  %36 = load ptr, ptr %35, align 8
  %37 = load i32, ptr %11, align 4
  %38 = sext i32 %37 to i64
  call void @llvm.memcpy.p0.p0.i64(ptr align 1 %31, ptr align 1 %36, i64 %38, i1 false)
  %39 = load i32, ptr %11, align 4
  %40 = load i32, ptr %8, align 4
  %41 = add nsw i32 %40, %39
  store i32 %41, ptr %8, align 4
  %42 = load i32, ptr %11, align 4
  %43 = load ptr, ptr %7, align 8
  %44 = sext i32 %42 to i64
  %45 = getelementptr inbounds i8, ptr %43, i64 %44
  store ptr %45, ptr %7, align 8
  %46 = load i32, ptr %9, align 4
  %47 = icmp sgt i32 %46, 0
  br i1 %47, label %48, label %65

48:                                               ; preds = %30
  %49 = load i32, ptr %10, align 4
  %50 = load i32, ptr %5, align 4
  %51 = sub nsw i32 %50, 1
  %52 = icmp slt i32 %49, %51
  br i1 %52, label %53, label %65

53:                                               ; preds = %48
  %54 = load ptr, ptr %7, align 8
  %55 = load ptr, ptr %6, align 8
  %56 = load i32, ptr %9, align 4
  %57 = sext i32 %56 to i64
  call void @llvm.memcpy.p0.p0.i64(ptr align 1 %54, ptr align 1 %55, i64 %57, i1 false)
  %58 = load i32, ptr %9, align 4
  %59 = load i32, ptr %8, align 4
  %60 = add nsw i32 %59, %58
  store i32 %60, ptr %8, align 4
  %61 = load i32, ptr %9, align 4
  %62 = load ptr, ptr %7, align 8
  %63 = sext i32 %61 to i64
  %64 = getelementptr inbounds i8, ptr %62, i64 %63
  store ptr %64, ptr %7, align 8
  br label %65

65:                                               ; preds = %53, %48, %30
  br label %66

66:                                               ; preds = %65, %19
  call void @llvm.lifetime.end.p0(i64 4, ptr %11) #13
  br label %67

67:                                               ; preds = %66
  %68 = load i32, ptr %10, align 4
  %69 = add nsw i32 %68, 1
  store i32 %69, ptr %10, align 4
  br label %14

70:                                               ; preds = %18
  call void @llvm.lifetime.end.p0(i64 4, ptr %9) #13
  call void @llvm.lifetime.end.p0(i64 4, ptr %8) #13
  call void @llvm.lifetime.end.p0(i64 8, ptr %7) #13
  ret ptr @TextJoin.buffer
}