; Function Attrs: nofree norecurse nosync nounwind memory(readwrite, inaccessiblemem: none) uwtable
define noundef nonnull ptr @TextJoin(ptr noundef readonly captures(none) %0, i32 noundef %1, ptr noundef readonly captures(address_is_null) %2) local_unnamed_addr #25 {
  tail call void @llvm.memset.p0.i64(ptr noundef nonnull align 16 dereferenceable(1024) @TextJoin.buffer, i8 0, i64 1024, i1 false)
  %.not.i = icmp eq ptr %2, null
  br i1 %.not.i, label %TextLength.exit, label %.preheader.i

.preheader.i:                                     ; preds = %3
  %4 = load i8, ptr %2, align 1
  %.not56.i = icmp eq i8 %4, 0
  br i1 %.not56.i, label %TextLength.exit, label %.lr.ph.i

.lr.ph.i:                                         ; preds = %.preheader.i, %.lr.ph.i
  %.18.i = phi i32 [ %6, %.lr.ph.i ], [ 0, %.preheader.i ]
  %.037.i = phi ptr [ %5, %.lr.ph.i ], [ %2, %.preheader.i ]
  %5 = getelementptr inbounds nuw i8, ptr %.037.i, i64 1
  %6 = add i32 %.18.i, 1
  %7 = load i8, ptr %5, align 1
  %.not5.i = icmp eq i8 %7, 0
  br i1 %.not5.i, label %TextLength.exit, label %.lr.ph.i

TextLength.exit:                                  ; preds = %.lr.ph.i, %3, %.preheader.i
  %.0.i = phi i32 [ 0, %3 ], [ 0, %.preheader.i ], [ %6, %.lr.ph.i ]
  %8 = icmp sgt i32 %1, 0
  br i1 %8, label %.lr.ph, label %._crit_edge

.lr.ph:                                           ; preds = %TextLength.exit
  %9 = icmp sgt i32 %.0.i, 0
  %10 = zext nneg i32 %.0.i to i64
  br i1 %9, label %.lr.ph.split.preheader, label %.lr.ph.split.us.preheader

.lr.ph.split.us.preheader:                        ; preds = %.lr.ph
  %wide.trip.count = zext nneg i32 %1 to i64
  br label %.lr.ph.split.us

.lr.ph.split.preheader:                           ; preds = %.lr.ph
  %11 = add nsw i32 %1, -1
  %12 = zext nneg i32 %11 to i64
  %wide.trip.count52 = zext nneg i32 %1 to i64
  br label %.lr.ph.split

.lr.ph.split.us:                                  ; preds = %.lr.ph.split.us.preheader, %24
  %indvars.iv = phi i64 [ 0, %.lr.ph.split.us.preheader ], [ %indvars.iv.next, %24 ]
  %.044.us = phi ptr [ @TextJoin.buffer, %.lr.ph.split.us.preheader ], [ %.1.us, %24 ]
  %.02642.us = phi i32 [ 0, %.lr.ph.split.us.preheader ], [ %.127.us, %24 ]
  %13 = getelementptr inbounds nuw ptr, ptr %0, i64 %indvars.iv
  %14 = load ptr, ptr %13, align 8
  %.not.i32.us = icmp eq ptr %14, null
  br i1 %.not.i32.us, label %TextLength.exit40.us, label %.preheader.i33.us

.preheader.i33.us:                                ; preds = %.lr.ph.split.us
  %15 = load i8, ptr %14, align 1
  %.not56.i34.us = icmp eq i8 %15, 0
  br i1 %.not56.i34.us, label %TextLength.exit40.us, label %.lr.ph.i35.us

.lr.ph.i35.us:                                    ; preds = %.preheader.i33.us, %.lr.ph.i35.us
  %.18.i36.us = phi i32 [ %17, %.lr.ph.i35.us ], [ 0, %.preheader.i33.us ]
  %.037.i37.us = phi ptr [ %16, %.lr.ph.i35.us ], [ %14, %.preheader.i33.us ]
  %16 = getelementptr inbounds nuw i8, ptr %.037.i37.us, i64 1
  %17 = add i32 %.18.i36.us, 1
  %18 = load i8, ptr %16, align 1
  %.not5.i38.us = icmp eq i8 %18, 0
  br i1 %.not5.i38.us, label %TextLength.exit40.us, label %.lr.ph.i35.us

TextLength.exit40.us:                             ; preds = %.lr.ph.i35.us, %.preheader.i33.us, %.lr.ph.split.us
  %.0.i39.us = phi i32 [ 0, %.lr.ph.split.us ], [ 0, %.preheader.i33.us ], [ %17, %.lr.ph.i35.us ]
  %19 = add nsw i32 %.0.i39.us, %.02642.us
  %20 = icmp slt i32 %19, 1024
  br i1 %20, label %21, label %24

21:                                               ; preds = %TextLength.exit40.us
  %22 = sext i32 %.0.i39.us to i64
  tail call void @llvm.memcpy.p0.p0.i64(ptr align 1 %.044.us, ptr align 1 %14, i64 %22, i1 false)
  %23 = getelementptr inbounds i8, ptr %.044.us, i64 %22
  br label %24

24:                                               ; preds = %21, %TextLength.exit40.us
  %.127.us = phi i32 [ %19, %21 ], [ %.02642.us, %TextLength.exit40.us ]
  %.1.us = phi ptr [ %23, %21 ], [ %.044.us, %TextLength.exit40.us ]
  %indvars.iv.next = add nuw nsw i64 %indvars.iv, 1
  %exitcond.not = icmp eq i64 %indvars.iv.next, %wide.trip.count
  br i1 %exitcond.not, label %._crit_edge, label %.lr.ph.split.us

._crit_edge:                                      ; preds = %24, %40, %TextLength.exit
  ret ptr @TextJoin.buffer

.lr.ph.split:                                     ; preds = %.lr.ph.split.preheader, %40
  %indvars.iv49 = phi i64 [ 0, %.lr.ph.split.preheader ], [ %indvars.iv.next50, %40 ]
  %.044 = phi ptr [ @TextJoin.buffer, %.lr.ph.split.preheader ], [ %.1, %40 ]
  %.02642 = phi i32 [ 0, %.lr.ph.split.preheader ], [ %.127, %40 ]
  %25 = getelementptr inbounds nuw ptr, ptr %0, i64 %indvars.iv49
  %26 = load ptr, ptr %25, align 8
  %.not.i32 = icmp eq ptr %26, null
  br i1 %.not.i32, label %TextLength.exit40, label %.preheader.i33

.preheader.i33:                                   ; preds = %.lr.ph.split
  %27 = load i8, ptr %26, align 1
  %.not56.i34 = icmp eq i8 %27, 0
  br i1 %.not56.i34, label %TextLength.exit40, label %.lr.ph.i35

.lr.ph.i35:                                       ; preds = %.preheader.i33, %.lr.ph.i35
  %.18.i36 = phi i32 [ %29, %.lr.ph.i35 ], [ 0, %.preheader.i33 ]
  %.037.i37 = phi ptr [ %28, %.lr.ph.i35 ], [ %26, %.preheader.i33 ]
  %28 = getelementptr inbounds nuw i8, ptr %.037.i37, i64 1
  %29 = add i32 %.18.i36, 1
  %30 = load i8, ptr %28, align 1
  %.not5.i38 = icmp eq i8 %30, 0
  br i1 %.not5.i38, label %TextLength.exit40, label %.lr.ph.i35

TextLength.exit40:                                ; preds = %.lr.ph.i35, %.lr.ph.split, %.preheader.i33
  %.0.i39 = phi i32 [ 0, %.lr.ph.split ], [ 0, %.preheader.i33 ], [ %29, %.lr.ph.i35 ]
  %31 = add nsw i32 %.0.i39, %.02642
  %32 = icmp slt i32 %31, 1024
  br i1 %32, label %33, label %40

33:                                               ; preds = %TextLength.exit40
  %34 = sext i32 %.0.i39 to i64
  tail call void @llvm.memcpy.p0.p0.i64(ptr align 1 %.044, ptr align 1 %26, i64 %34, i1 false)
  %35 = getelementptr inbounds i8, ptr %.044, i64 %34
  %36 = icmp samesign ult i64 %indvars.iv49, %12
  br i1 %36, label %37, label %40

37:                                               ; preds = %33
  tail call void @llvm.memcpy.p0.p0.i64(ptr align 1 %35, ptr align 1 %2, i64 %10, i1 false)
  %38 = add nsw i32 %31, %.0.i
  %39 = getelementptr inbounds nuw i8, ptr %35, i64 %10
  br label %40

40:                                               ; preds = %33, %37, %TextLength.exit40
  %.127 = phi i32 [ %38, %37 ], [ %31, %33 ], [ %.02642, %TextLength.exit40 ]
  %.1 = phi ptr [ %39, %37 ], [ %35, %33 ], [ %.044, %TextLength.exit40 ]
  %indvars.iv.next50 = add nuw nsw i64 %indvars.iv49, 1
  %exitcond53.not = icmp eq i64 %indvars.iv.next50, %wide.trip.count52
  br i1 %exitcond53.not, label %._crit_edge, label %.lr.ph.split
}